target datalayout = "e-m:e-p270:32:32-p271:32:32-p272:64:64-i64:64-i128:128-f80:128-n8:16:32:64-S128"
target triple = "x86_64-pc-linux-gnu"

%struct.quic_lcidm_st = type { ptr, ptr, ptr, i64 }

@.str = private unnamed_addr constant [33 x i8] c"../openssl/ssl/quic/quic_lcidm.c\00", align 1

; Function Attrs: inlinehint nounwind uwtable
define internal void @lh_QUIC_LCIDM_CONN_free(ptr noundef %0) #3 {
  %2 = alloca ptr, align 8
  store ptr %0, ptr %2, align 8, !tbaa !31
  %3 = load ptr, ptr %2, align 8, !tbaa !31
  call void @OPENSSL_LH_free(ptr noundef %3)
  ret void
}

; Function Attrs: inlinehint nounwind uwtable
define internal void @lh_QUIC_LCID_free(ptr noundef %0) #3 {
  %2 = alloca ptr, align 8
  store ptr %0, ptr %2, align 8, !tbaa !30
  %3 = load ptr, ptr %2, align 8, !tbaa !30
  call void @OPENSSL_LH_free(ptr noundef %3)
  ret void
}

; Function Attrs: inlinehint nounwind uwtable
define internal ptr @lh_QUIC_LCIDM_CONN_new(ptr noundef %0, ptr noundef %1) #3 {
  %3 = alloca ptr, align 8
  %4 = alloca ptr, align 8
  store ptr %0, ptr %3, align 8, !tbaa !19
  store ptr %1, ptr %4, align 8, !tbaa !19
  %5 = load ptr, ptr %3, align 8, !tbaa !19
  %6 = load ptr, ptr %4, align 8, !tbaa !19
  %7 = call ptr @OPENSSL_LH_new(ptr noundef %5, ptr noundef %6)
  %8 = call ptr @OPENSSL_LH_set_thunks(ptr noundef %7, ptr noundef @lh_QUIC_LCIDM_CONN_hfn_thunk, ptr noundef @lh_QUIC_LCIDM_CONN_cfn_thunk, ptr noundef @lh_QUIC_LCIDM_CONN_doall_thunk, ptr noundef @lh_QUIC_LCIDM_CONN_doall_arg_thunk)
  ret ptr %8
}

; Function Attrs: inlinehint nounwind uwtable
define internal ptr @lh_QUIC_LCID_new(ptr noundef %0, ptr noundef %1) #3 {
  %3 = alloca ptr, align 8
  %4 = alloca ptr, align 8
  store ptr %0, ptr %3, align 8, !tbaa !19
  store ptr %1, ptr %4, align 8, !tbaa !19
  %5 = load ptr, ptr %3, align 8, !tbaa !19
  %6 = load ptr, ptr %4, align 8, !tbaa !19
  %7 = call ptr @OPENSSL_LH_new(ptr noundef %5, ptr noundef %6)
  %8 = call ptr @OPENSSL_LH_set_thunks(ptr noundef %7, ptr noundef @lh_QUIC_LCID_hfn_thunk, ptr noundef @lh_QUIC_LCID_cfn_thunk, ptr noundef @lh_QUIC_LCID_doall_thunk, ptr noundef @lh_QUIC_LCID_doall_arg_thunk)
  ret ptr %8
}

; Function Attrs: nounwind uwtable
define ptr @ossl_quic_lcidm_new(ptr noundef %0, i64 noundef %1) #0 {
  %3 = alloca ptr, align 8
  %4 = alloca ptr, align 8
  %5 = alloca i64, align 8
  %6 = alloca ptr, align 8
  %7 = alloca i32, align 4
  store ptr %0, ptr %4, align 8, !tbaa !3
  store i64 %1, ptr %5, align 8, !tbaa !8
  call void @llvm.lifetime.start.p0(i64 8, ptr %6) #7
  store ptr null, ptr %6, align 8, !tbaa !10
  %8 = load i64, ptr %5, align 8, !tbaa !8
  %9 = icmp ugt i64 %8, 20
  br i1 %9, label %10, label %11

10:                                               ; preds = %2
  br label %35

11:                                               ; preds = %2
  %12 = call noalias ptr @CRYPTO_zalloc(i64 noundef 32, ptr noundef @.str, i32 noundef 104)
  store ptr %12, ptr %6, align 8, !tbaa !10
  %13 = icmp eq ptr %12, null
  br i1 %13, label %14, label %15

14:                                               ; preds = %11
  br label %35

15:                                               ; preds = %11
  %16 = call ptr @lh_QUIC_LCID_new(ptr noundef @lcid_hash, ptr noundef @lcid_comp)
  %17 = load ptr, ptr %6, align 8, !tbaa !10
  %18 = getelementptr inbounds nuw %struct.quic_lcidm_st, ptr %17, i32 0, i32 1
  store ptr %16, ptr %18, align 8, !tbaa !12
  %19 = icmp eq ptr %16, null
  br i1 %19, label %20, label %21

20:                                               ; preds = %15
  br label %35

21:                                               ; preds = %15
  %22 = call ptr @lh_QUIC_LCIDM_CONN_new(ptr noundef @lcidm_conn_hash, ptr noundef @lcidm_conn_comp)
  %23 = load ptr, ptr %6, align 8, !tbaa !10
  %24 = getelementptr inbounds nuw %struct.quic_lcidm_st, ptr %23, i32 0, i32 2
  store ptr %22, ptr %24, align 8, !tbaa !16
  %25 = icmp eq ptr %22, null
  br i1 %25, label %26, label %27

26:                                               ; preds = %21
  br label %35

27:                                               ; preds = %21
  %28 = load ptr, ptr %4, align 8, !tbaa !3
  %29 = load ptr, ptr %6, align 8, !tbaa !10
  %30 = getelementptr inbounds nuw %struct.quic_lcidm_st, ptr %29, i32 0, i32 0
  store ptr %28, ptr %30, align 8, !tbaa !17
  %31 = load i64, ptr %5, align 8, !tbaa !8
  %32 = load ptr, ptr %6, align 8, !tbaa !10
  %33 = getelementptr inbounds nuw %struct.quic_lcidm_st, ptr %32, i32 0, i32 3
  store i64 %31, ptr %33, align 8, !tbaa !18
  %34 = load ptr, ptr %6, align 8, !tbaa !10
  store ptr %34, ptr %3, align 8
  store i32 1, ptr %7, align 4
  br label %47

35:                                               ; preds = %26, %20, %14, %10
  %36 = load ptr, ptr %6, align 8, !tbaa !10
  %37 = icmp ne ptr %36, null
  br i1 %37, label %38, label %46

38:                                               ; preds = %35
  %39 = load ptr, ptr %6, align 8, !tbaa !10
  %40 = getelementptr inbounds nuw %struct.quic_lcidm_st, ptr %39, i32 0, i32 1
  %41 = load ptr, ptr %40, align 8, !tbaa !12
  call void @lh_QUIC_LCID_free(ptr noundef %41)
  %42 = load ptr, ptr %6, align 8, !tbaa !10
  %43 = getelementptr inbounds nuw %struct.quic_lcidm_st, ptr %42, i32 0, i32 2
  %44 = load ptr, ptr %43, align 8, !tbaa !16
  call void @lh_QUIC_LCIDM_CONN_free(ptr noundef %44)
  %45 = load ptr, ptr %6, align 8, !tbaa !10
  call void @CRYPTO_free(ptr noundef %45, ptr noundef @.str, i32 noundef 122)
  br label %46

46:                                               ; preds = %38, %35
  store ptr null, ptr %3, align 8
  store i32 1, ptr %7, align 4
  br label %47

47:                                               ; preds = %46, %27
  call void @llvm.lifetime.end.p0(i64 8, ptr %6) #7
  %48 = load ptr, ptr %3, align 8
  ret ptr %48
}