; Function Attrs: nounwind uwtable
define ptr @ossl_quic_lcidm_new(ptr noundef %0, i64 noundef %1) local_unnamed_addr #0 {
  %3 = icmp ugt i64 %1, 20
  br i1 %3, label %.thread, label %4

4:                                                ; preds = %2
  %5 = tail call noalias ptr @CRYPTO_zalloc(i64 noundef 32, ptr noundef nonnull @.str, i32 noundef 104) #11
  %6 = icmp eq ptr %5, null
  br i1 %6, label %.thread, label %7

7:                                                ; preds = %4
  %8 = tail call ptr @OPENSSL_LH_new(ptr noundef nonnull @lcid_hash, ptr noundef nonnull @lcid_comp) #11
  %9 = tail call ptr @OPENSSL_LH_set_thunks(ptr noundef %8, ptr noundef nonnull @lh_QUIC_LCID_hfn_thunk, ptr noundef nonnull @lh_QUIC_LCID_cfn_thunk, ptr noundef nonnull @lh_QUIC_LCID_doall_thunk, ptr noundef nonnull @lh_QUIC_LCID_doall_arg_thunk) #11
  %10 = getelementptr inbounds nuw i8, ptr %5, i64 8
  store ptr %9, ptr %10, align 8, !tbaa !3
  %11 = icmp eq ptr %9, null
  br i1 %11, label %19, label %12

12:                                               ; preds = %7
  %13 = tail call ptr @OPENSSL_LH_new(ptr noundef nonnull @lcidm_conn_hash, ptr noundef nonnull @lcidm_conn_comp) #11
  %14 = tail call ptr @OPENSSL_LH_set_thunks(ptr noundef %13, ptr noundef nonnull @lh_QUIC_LCIDM_CONN_hfn_thunk, ptr noundef nonnull @lh_QUIC_LCIDM_CONN_cfn_thunk, ptr noundef nonnull @lh_QUIC_LCIDM_CONN_doall_thunk, ptr noundef nonnull @lh_QUIC_LCIDM_CONN_doall_arg_thunk) #11
  %15 = getelementptr inbounds nuw i8, ptr %5, i64 16
  store ptr %14, ptr %15, align 8, !tbaa !12
  %16 = icmp eq ptr %14, null
  br i1 %16, label %19, label %17

17:                                               ; preds = %12
  store ptr %0, ptr %5, align 8, !tbaa !13
  %18 = getelementptr inbounds nuw i8, ptr %5, i64 24
  store i64 %1, ptr %18, align 8, !tbaa !14
  br label %.thread

19:                                               ; preds = %7, %12
  tail call void @OPENSSL_LH_free(ptr noundef %9) #11
  %20 = getelementptr inbounds nuw i8, ptr %5, i64 16
  %21 = load ptr, ptr %20, align 8, !tbaa !12
  tail call void @OPENSSL_LH_free(ptr noundef %21) #11
  tail call void @CRYPTO_free(ptr noundef nonnull %5, ptr noundef nonnull @.str, i32 noundef 122) #11
  br label %.thread

.thread:                                          ; preds = %4, %2, %19, %17
  %.012 = phi ptr [ %5, %17 ], [ null, %19 ], [ null, %2 ], [ null, %4 ]
  ret ptr %.012
}